; Function Attrs: nounwind uwtable
define zeroext i8 @l_Lean_Lsp_RefInfo_findReferenceLocation_x3f_contains(i8 noundef zeroext %0, ptr noundef %1, ptr noundef %2) local_unnamed_addr #0 {
  %4 = getelementptr inbounds nuw i8, ptr %1, i64 8
  %5 = load ptr, ptr %4, align 8, !tbaa !4
  %6 = ptrtoint ptr %5 to i64
  %7 = and i64 %6, 1
  %.not = icmp eq i64 %7, 0
  br i1 %.not, label %8, label %lean_inc.exit27

8:                                                ; preds = %3
  %.val.i = load i32, ptr %5, align 4, !tbaa !8
  %9 = icmp sgt i32 %.val.i, 0
  br i1 %9, label %10, label %12, !prof !11

10:                                               ; preds = %8
  %11 = add nuw i32 %.val.i, 1
  store i32 %11, ptr %5, align 4, !tbaa !8
  br label %lean_inc.exit27

12:                                               ; preds = %8
  %.not.i37 = icmp eq i32 %.val.i, 0
  br i1 %.not.i37, label %lean_inc.exit27, label %13

13:                                               ; preds = %12
  tail call void @lean_inc_ref_cold(ptr noundef nonnull %5) #8
  br label %lean_inc.exit27

lean_inc.exit27:                                  ; preds = %13, %12, %10, %3
  %14 = load ptr, ptr @l_Lean_Lsp_instOrdPosition, align 8, !tbaa !4
  %15 = ptrtoint ptr %2 to i64
  %16 = and i64 %15, 1
  %.not47 = icmp eq i64 %16, 0
  br i1 %.not47, label %17, label %lean_inc.exit26.thread

17:                                               ; preds = %lean_inc.exit27
  %.val.i38 = load i32, ptr %2, align 4, !tbaa !8
  %18 = icmp sgt i32 %.val.i38, 0
  br i1 %18, label %19, label %21, !prof !11

19:                                               ; preds = %17
  %20 = add nuw i32 %.val.i38, 1
  store i32 %20, ptr %2, align 4, !tbaa !8
  br label %lean_inc.exit26

21:                                               ; preds = %17
  %.not.i39 = icmp eq i32 %.val.i38, 0
  br i1 %.not.i39, label %lean_inc.exit26, label %22

22:                                               ; preds = %21
  tail call void @lean_inc_ref_cold(ptr noundef nonnull %2) #8
  br label %lean_inc.exit26

lean_inc.exit26:                                  ; preds = %22, %21, %19
  %23 = tail call zeroext i8 @l_Ord_instDecidableRelLe___rarg(ptr noundef %14, ptr noundef %5, ptr noundef nonnull %2) #8
  %24 = icmp eq i8 %23, 0
  br i1 %24, label %27, label %43

lean_inc.exit26.thread:                           ; preds = %lean_inc.exit27
  %25 = tail call zeroext i8 @l_Ord_instDecidableRelLe___rarg(ptr noundef %14, ptr noundef %5, ptr noundef %2) #8
  %26 = icmp eq i8 %25, 0
  br i1 %26, label %lean_dec.exit30, label %43

27:                                               ; preds = %lean_inc.exit26
  %28 = load i32, ptr %2, align 4, !tbaa !8
  %29 = icmp sgt i32 %28, 1
  br i1 %29, label %30, label %32, !prof !11

30:                                               ; preds = %27
  %31 = add nsw i32 %28, -1
  store i32 %31, ptr %2, align 4, !tbaa !8
  br label %lean_dec.exit30

32:                                               ; preds = %27
  %.not.i = icmp eq i32 %28, 0
  br i1 %.not.i, label %lean_dec.exit30, label %33

33:                                               ; preds = %32
  tail call void @lean_dec_ref_cold(ptr noundef nonnull %2) #8
  br label %lean_dec.exit30

lean_dec.exit30:                                  ; preds = %lean_inc.exit26.thread, %33, %32, %30
  %34 = ptrtoint ptr %1 to i64
  %35 = and i64 %34, 1
  %.not52 = icmp eq i64 %35, 0
  br i1 %.not52, label %36, label %lean_dec.exit29

36:                                               ; preds = %lean_dec.exit30
  %37 = load i32, ptr %1, align 4, !tbaa !8
  %38 = icmp sgt i32 %37, 1
  br i1 %38, label %39, label %41, !prof !11

39:                                               ; preds = %36
  %40 = add nsw i32 %37, -1
  store i32 %40, ptr %1, align 4, !tbaa !8
  br label %lean_dec.exit29

41:                                               ; preds = %36
  %.not.i31 = icmp eq i32 %37, 0
  br i1 %.not.i31, label %lean_dec.exit29, label %42

42:                                               ; preds = %41
  tail call void @lean_dec_ref_cold(ptr noundef nonnull %1) #8
  br label %lean_dec.exit29

43:                                               ; preds = %lean_inc.exit26.thread, %lean_inc.exit26
  %44 = icmp eq i8 %0, 0
  %45 = getelementptr inbounds nuw i8, ptr %1, i64 16
  %46 = load ptr, ptr %45, align 8, !tbaa !4
  %47 = ptrtoint ptr %46 to i64
  %48 = and i64 %47, 1
  %.not50 = icmp eq i64 %48, 0
  br i1 %44, label %49, label %66

49:                                               ; preds = %43
  br i1 %.not50, label %50, label %lean_inc.exit25

50:                                               ; preds = %49
  %.val.i41 = load i32, ptr %46, align 4, !tbaa !8
  %51 = icmp sgt i32 %.val.i41, 0
  br i1 %51, label %52, label %54, !prof !11

52:                                               ; preds = %50
  %53 = add nuw i32 %.val.i41, 1
  store i32 %53, ptr %46, align 4, !tbaa !8
  br label %lean_inc.exit25

54:                                               ; preds = %50
  %.not.i42 = icmp eq i32 %.val.i41, 0
  br i1 %.not.i42, label %lean_inc.exit25, label %55

55:                                               ; preds = %54
  tail call void @lean_inc_ref_cold(ptr noundef nonnull %46) #8
  br label %lean_inc.exit25

lean_inc.exit25:                                  ; preds = %55, %54, %52, %49
  %56 = ptrtoint ptr %1 to i64
  %57 = and i64 %56, 1
  %.not51 = icmp eq i64 %57, 0
  br i1 %.not51, label %58, label %lean_dec.exit28

58:                                               ; preds = %lean_inc.exit25
  %59 = load i32, ptr %1, align 4, !tbaa !8
  %60 = icmp sgt i32 %59, 1
  br i1 %60, label %61, label %63, !prof !11

61:                                               ; preds = %58
  %62 = add nsw i32 %59, -1
  store i32 %62, ptr %1, align 4, !tbaa !8
  br label %lean_dec.exit28

63:                                               ; preds = %58
  %.not.i33 = icmp eq i32 %59, 0
  br i1 %.not.i33, label %lean_dec.exit28, label %64

64:                                               ; preds = %63
  tail call void @lean_dec_ref_cold(ptr noundef nonnull %1) #8
  br label %lean_dec.exit28

lean_dec.exit28:                                  ; preds = %64, %63, %61, %lean_inc.exit25
  %65 = tail call zeroext i8 @l_Ord_instDecidableRelLt___rarg(ptr noundef %14, ptr noundef %2, ptr noundef %46) #8
  br label %lean_dec.exit29

66:                                               ; preds = %43
  br i1 %.not50, label %67, label %lean_inc.exit

67:                                               ; preds = %66
  %.val.i44 = load i32, ptr %46, align 4, !tbaa !8
  %68 = icmp sgt i32 %.val.i44, 0
  br i1 %68, label %69, label %71, !prof !11

69:                                               ; preds = %67
  %70 = add nuw i32 %.val.i44, 1
  store i32 %70, ptr %46, align 4, !tbaa !8
  br label %lean_inc.exit

71:                                               ; preds = %67
  %.not.i45 = icmp eq i32 %.val.i44, 0
  br i1 %.not.i45, label %lean_inc.exit, label %72

72:                                               ; preds = %71
  tail call void @lean_inc_ref_cold(ptr noundef nonnull %46) #8
  br label %lean_inc.exit

lean_inc.exit:                                    ; preds = %72, %71, %69, %66
  %73 = ptrtoint ptr %1 to i64
  %74 = and i64 %73, 1
  %.not49 = icmp eq i64 %74, 0
  br i1 %.not49, label %75, label %lean_dec.exit

75:                                               ; preds = %lean_inc.exit
  %76 = load i32, ptr %1, align 4, !tbaa !8
  %77 = icmp sgt i32 %76, 1
  br i1 %77, label %78, label %80, !prof !11

78:                                               ; preds = %75
  %79 = add nsw i32 %76, -1
  store i32 %79, ptr %1, align 4, !tbaa !8
  br label %lean_dec.exit

80:                                               ; preds = %75
  %.not.i35 = icmp eq i32 %76, 0
  br i1 %.not.i35, label %lean_dec.exit, label %81

81:                                               ; preds = %80
  tail call void @lean_dec_ref_cold(ptr noundef nonnull %1) #8
  br label %lean_dec.exit

lean_dec.exit:                                    ; preds = %81, %80, %78, %lean_inc.exit
  %82 = tail call zeroext i8 @l_Ord_instDecidableRelLe___rarg(ptr noundef %14, ptr noundef %2, ptr noundef %46) #8
  br label %lean_dec.exit29

lean_dec.exit29:                                  ; preds = %lean_dec.exit30, %39, %41, %42, %lean_dec.exit, %lean_dec.exit28
  %.0 = phi i8 [ %65, %lean_dec.exit28 ], [ %82, %lean_dec.exit ], [ 0, %42 ], [ 0, %41 ], [ 0, %39 ], [ 0, %lean_dec.exit30 ]
  ret i8 %.0
}